Certificate:
    Data:
        Version: 3 (0x2)
        Serial Number: 5 (0x5)
    Signature Algorithm: md5WithRSAEncryption
        Issuer: CN=concertim.com, ST=London, C=GB/emailAddress=support@concertim.com, O=Concertim Infrastructure Management Limited, OU=Concertim Infrastructure Management Limited
        Validity
            Not Before: Dec 14 15:00:11 2015 GMT
            Not After : Dec 11 15:00:11 2025 GMT
        Subject: CN=*.concertim.com, ST=London, C=GB/emailAddress=support@concertim.com, O=Concertim Infrastructure Management Limited, OU=Concertim Infrastructure Management Limited
        Subject Public Key Info:
            Public Key Algorithm: rsaEncryption
                Public-Key: (2048 bit)
                Modulus:
                    00:ca:1b:a2:b5:d0:0a:e2:c8:0b:84:0f:d1:da:d2:
                    e6:c9:ba:67:86:54:18:39:22:51:49:b5:27:aa:3a:
                    50:f9:22:79:ef:7a:3b:72:e8:da:b0:77:27:f8:a4:
                    cc:3a:b4:61:84:b7:f6:b2:17:b7:00:c9:32:d3:8b:
                    72:ea:d0:5c:d3:30:40:00:fc:64:87:d4:53:6d:34:
                    1e:6f:02:d3:db:e3:5b:50:50:f7:f4:da:49:8f:3c:
                    d5:49:6e:de:fe:bf:52:d2:44:89:91:d8:ba:33:51:
                    fc:fd:3b:ec:1d:b3:de:c0:65:ab:ac:99:ea:43:3f:
                    f0:50:48:07:73:4b:e4:03:a6:a2:14:c2:4d:27:b0:
                    76:9a:15:60:d9:ae:1e:43:cf:c6:a3:08:71:ea:bc:
                    71:d0:b7:54:e4:28:fc:b8:93:ba:06:d0:60:8d:90:
                    62:a6:1f:6b:7c:e2:9a:c6:e8:03:91:55:a5:6e:66:
                    17:b1:66:0e:b7:31:49:3d:39:60:20:f6:0d:26:ca:
                    56:a0:9d:f6:f0:be:bb:4c:1a:ab:7f:9a:3f:26:34:
                    88:89:0a:d6:2c:a7:52:76:c2:1c:e1:35:2b:5f:62:
                    8a:f2:c9:c4:9f:53:1b:07:e0:cc:52:cb:f3:c8:c8:
                    39:95:47:cc:6f:b3:78:6b:d7:dc:ed:73:ec:b7:d8:
                    cf:cb
                Exponent: 65537 (0x10001)
        X509v3 extensions:
            X509v3 Basic Constraints: 
                CA:TRUE
    Signature Algorithm: md5WithRSAEncryption
         75:98:9d:92:c5:92:3b:cf:30:48:19:b7:37:a3:f5:8b:25:b0:
         7e:b9:b9:29:89:6e:8a:3e:a5:2a:4c:0e:55:0e:b4:a0:ae:b8:
         70:4c:66:e1:46:6e:37:31:fb:59:3d:c6:5c:af:2f:b2:05:b7:
         7a:81:74:15:3b:34:1d:c6:b6:43:61:41:62:c4:4a:fc:dc:72:
         4e:58:09:a0:7d:f7:b1:eb:77:3b:45:fa:09:c9:f1:1f:bc:64:
         2f:0d:cc:97:be:0c:25:2b:b3:de:94:1d:84:d4:f2:ea:bd:e8:
         cb:26:87:8b:f3:6d:36:4f:c6:92:96:d9:94:87:68:cb:4d:43:
         64:b5:c7:92:a6:90:b8:7f:ce:c4:10:85:c3:94:03:b2:d7:db:
         b1:be:70:c7:94:1f:c0:8b:8e:7e:48:61:58:bc:9f:53:38:02:
         10:47:c1:fd:3d:30:9e:2e:2a:6e:1a:dd:e5:0d:e9:3c:b8:e5:
         30:f0:c5:c3:a2:ec:bb:33:56:ab:f2:85:14:f7:fb:60:96:ff:
         8b:8d:ad:f5:0b:72:56:11:2f:e8:23:65:8c:9d:f4:50:88:ad:
         f8:d5:62:74:a3:f1:b1:ef:a0:a4:02:8a:96:87:cb:d2:ec:53:
         91:de:86:cc:db:79:99:32:33:aa:f9:c7:21:db:67:6d:92:4d:
         91:f4:e0:b9
-----BEGIN CERTIFICATE-----
MIIEHzCCAwegAwIBAgIBBTANBgkqhkiG9w0BAQQFADCByDEWMBQGA1UEAxMNY29u
Y2VydGltLmNvbTEPMA0GA1UECBMGTG9uZG9uMQswCQYDVQQGEwJHQjEkMCIGCSqG
SIb3DQEJARYVc3VwcG9ydEBjb25jZXJ0aW0uY29tMTQwMgYDVQQKEytDb25jZXJ0
aW0gSW5mcmFzdHJ1Y3R1cmUgTWFuYWdlbWVudCBMaW1pdGVkMTQwMgYDVQQLEytD
b25jZXJ0aW0gSW5mcmFzdHJ1Y3R1cmUgTWFuYWdlbWVudCBMaW1pdGVkMB4XDTE1
MTIxNDE1MDAxMVoXDTI1MTIxMTE1MDAxMVowgcoxGDAWBgNVBAMUDyouY29uY2Vy
dGltLmNvbTEPMA0GA1UECBMGTG9uZG9uMQswCQYDVQQGEwJHQjEkMCIGCSqGSIb3
DQEJARYVc3VwcG9ydEBjb25jZXJ0aW0uY29tMTQwMgYDVQQKEytDb25jZXJ0aW0g
SW5mcmFzdHJ1Y3R1cmUgTWFuYWdlbWVudCBMaW1pdGVkMTQwMgYDVQQLEytDb25j
ZXJ0aW0gSW5mcmFzdHJ1Y3R1cmUgTWFuYWdlbWVudCBMaW1pdGVkMIIBIjANBgkq
hkiG9w0BAQEFAAOCAQ8AMIIBCgKCAQEAyhuitdAK4sgLhA/R2tLmybpnhlQYOSJR
SbUnqjpQ+SJ573o7cujasHcn+KTMOrRhhLf2she3AMky04ty6tBc0zBAAPxkh9RT
bTQebwLT2+NbUFD39NpJjzzVSW7e/r9S0kSJkdi6M1H8/TvsHbPewGWrrJnqQz/w
UEgHc0vkA6aiFMJNJ7B2mhVg2a4eQ8/Gowhx6rxx0LdU5Cj8uJO6BtBgjZBiph9r
fOKaxugDkVWlbmYXsWYOtzFJPTlgIPYNJspWoJ328L67TBqrf5o/JjSIiQrWLKdS
dsIc4TUrX2KK8snEn1MbB+DMUsvzyMg5lUfMb7N4a9fc7XPst9jPywIDAQABoxAw
DjAMBgNVHRMEBTADAQH/MA0GCSqGSIb3DQEBBAUAA4IBAQB1mJ2SxZI7zzBIGbc3
o/WLJbB+ubkpiW6KPqUqTA5VDrSgrrhwTGbhRm43MftZPcZcry+yBbd6gXQVOzQd
xrZDYUFixEr83HJOWAmgffex63c7RfoJyfEfvGQvDcyXvgwlK7PelB2E1PLqvejL
JoeL8202T8aSltmUh2jLTUNktceSppC4f87EEIXDlAOy19uxvnDHlB/Ai45+SGFY
vJ9TOAIQR8H9PTCeLipuGt3lDek8uOUw8MXDouy7M1ar8oUU9/tglv+Lja31C3JW
ES/oI2WMnfRQiK341WJ0o/Gx76CkAoqWh8vS7FOR3obM23mZMjOq+cch22dtkk2R
9OC5
-----END CERTIFICATE-----
-----BEGIN CERTIFICATE-----
MIIEJTCCAw2gAwIBAgIJAIgzuXGT0Gx6MA0GCSqGSIb3DQEBBQUAMIHIMRYwFAYD
VQQDEw1jb25jZXJ0aW0uY29tMQ8wDQYDVQQIEwZMb25kb24xCzAJBgNVBAYTAkdC
MSQwIgYJKoZIhvcNAQkBFhVzdXBwb3J0QGNvbmNlcnRpbS5jb20xNDAyBgNVBAoT
K0NvbmNlcnRpbSBJbmZyYXN0cnVjdHVyZSBNYW5hZ2VtZW50IExpbWl0ZWQxNDAy
BgNVBAsTK0NvbmNlcnRpbSBJbmZyYXN0cnVjdHVyZSBNYW5hZ2VtZW50IExpbWl0
ZWQwHhcNMTUxMjE0MTQ0MDIyWhcNMjUxMjExMTQ0MDIyWjCByDEWMBQGA1UEAxMN
Y29uY2VydGltLmNvbTEPMA0GA1UECBMGTG9uZG9uMQswCQYDVQQGEwJHQjEkMCIG
CSqGSIb3DQEJARYVc3VwcG9ydEBjb25jZXJ0aW0uY29tMTQwMgYDVQQKEytDb25j
ZXJ0aW0gSW5mcmFzdHJ1Y3R1cmUgTWFuYWdlbWVudCBMaW1pdGVkMTQwMgYDVQQL
EytDb25jZXJ0aW0gSW5mcmFzdHJ1Y3R1cmUgTWFuYWdlbWVudCBMaW1pdGVkMIIB
IjANBgkqhkiG9w0BAQEFAAOCAQ8AMIIBCgKCAQEAwOliY1V2q0B1pjP7EUnL0hDV
BPzMTUaps5A7GDaJ0HB2nJxEU77SENLMXWBCMG+QzP8IToMfysPXSz3EFzn3C5Vi
Mp7OuXnUel2OFVIMakKEN0f+qRjbBEw2MZ1ch2fGfvROemvVRFR8+USJ1ac977bD
KEzAVkbIStT6CyGJBXQqrywGaZmX3L18F7YYzcI4ak/CjbYYGqOnYHGwzGjjdopH
8+o6bvJIxzhhIRrIIcbuJMw+cD/zIHXVvjG0KtiLtZqvj0Li2hjuVx6ovSVN/Q1g
sOUGsbb+rdt/F8Mseo9itEQmMrN5s/CdyMKyzKO53Kibirq0nQnpLaRyYuwpCQID
AQABoxAwDjAMBgNVHRMEBTADAQH/MA0GCSqGSIb3DQEBBQUAA4IBAQAqxYBpfkHx
8/7iRxZby3Nb/+IqUGYanTJmbFw5gibjQ5orAor49ngbD+VWMOUU8Jpi+DprPmOm
XhobfYIokwDs0Q8UG9VF99/xw4HxCPVHmg7HJb5gCwAFjow+McN3/DVBnK3Io+uj
i/+Iq4i8MDhoVpPNx5nfr8Io3OjHY8sZuzWAcJYfz9tg3LpZF/VtX1FiwN+Xjy1B
xPNb0MbOxaodIcm477zyHJKcZzH+8ywFT03rtLdlk9wfJWPOwRJzFYPjhiojpXAf
VnPfFDdpha0tBe9//MICqiymUb6ogBaTRI8Tp39yzrv8WSeAmjegUz8QHR7Q+rLA
RNlTOLmW6HMM
-----END CERTIFICATE-----

